target datalayout = "e-m:e-p270:32:32-p271:32:32-p272:64:64-i64:64-i128:128-f80:128-n8:16:32:64-S128"
target triple = "x86_64-pc-linux-gnu"

%struct.hb_sparseset_t = type { %struct.hb_object_header_t, %struct.hb_bit_set_invertible_t }
%struct.hb_object_header_t = type { %struct.hb_reference_count_t, %struct.hb_atomic_int_t, %struct.hb_atomic_ptr_t }
%struct.hb_reference_count_t = type { %struct.hb_atomic_int_t }
%struct.hb_atomic_int_t = type { i32 }
%struct.hb_atomic_ptr_t = type { ptr }
%struct.hb_bit_set_invertible_t = type <{ %struct.hb_bit_set_t, i8, [7 x i8] }>
%struct.hb_bit_set_t = type { i8, i32, %struct.hb_atomic_int_t, %struct.hb_vector_t, %struct.hb_vector_t.0 }
%struct.hb_vector_t = type { i32, i32, ptr }
%struct.hb_vector_t.0 = type { i32, i32, ptr }

; Function Attrs: mustprogress uwtable
define linkonce_odr hidden noundef zeroext i1 @_ZNK12hb_bit_set_t10next_rangeEPjS0_(ptr noundef nonnull align 8 dereferenceable(48) %0, ptr noundef %1, ptr noundef %2) #0 comdat align 2 {
  %4 = alloca i1, align 1
  %5 = alloca ptr, align 8
  %6 = alloca ptr, align 8
  %7 = alloca ptr, align 8
  %8 = alloca i32, align 4
  store ptr %0, ptr %5, align 8
  store ptr %1, ptr %6, align 8
  store ptr %2, ptr %7, align 8
  %9 = load ptr, ptr %5, align 8
  %10 = load ptr, ptr %7, align 8
  %11 = load i32, ptr %10, align 4
  store i32 %11, ptr %8, align 4
  %12 = call noundef zeroext i1 @_ZNK12hb_bit_set_t4nextEPj(ptr noundef nonnull align 8 dereferenceable(48) %9, ptr noundef %8)
  br i1 %12, label %16, label %13

13:                                               ; preds = %3
  %14 = load ptr, ptr %6, align 8
  store i32 -1, ptr %14, align 4
  %15 = load ptr, ptr %7, align 8
  store i32 -1, ptr %15, align 4
  store i1 false, ptr %4, align 1
  br label %35

16:                                               ; preds = %3
  %17 = load i32, ptr %8, align 4
  %18 = load ptr, ptr %6, align 8
  store i32 %17, ptr %18, align 4
  %19 = load ptr, ptr %7, align 8
  store i32 %17, ptr %19, align 4
  br label %20

20:                                               ; preds = %30, %16
  %21 = call noundef zeroext i1 @_ZNK12hb_bit_set_t4nextEPj(ptr noundef nonnull align 8 dereferenceable(48) %9, ptr noundef %8)
  br i1 %21, label %22, label %28

22:                                               ; preds = %20
  %23 = load i32, ptr %8, align 4
  %24 = load ptr, ptr %7, align 8
  %25 = load i32, ptr %24, align 4
  %26 = add i32 %25, 1
  %27 = icmp eq i32 %23, %26
  br label %28

28:                                               ; preds = %22, %20
  %29 = phi i1 [ false, %20 ], [ %27, %22 ]
  br i1 %29, label %30, label %34

30:                                               ; preds = %28
  %31 = load ptr, ptr %7, align 8
  %32 = load i32, ptr %31, align 4
  %33 = add i32 %32, 1
  store i32 %33, ptr %31, align 4
  br label %20, !llvm.loop !16

34:                                               ; preds = %28
  store i1 true, ptr %4, align 1
  br label %35

35:                                               ; preds = %34, %13
  %36 = load i1, ptr %4, align 1
  ret i1 %36
}

; Function Attrs: mustprogress uwtable
define linkonce_odr hidden noundef zeroext i1 @_ZNK23hb_bit_set_invertible_t10next_rangeEPjS0_(ptr noundef nonnull align 8 dereferenceable(49) %0, ptr noundef %1, ptr noundef %2) #0 comdat align 2 {
  %4 = alloca i1, align 1
  %5 = alloca ptr, align 8
  %6 = alloca ptr, align 8
  %7 = alloca ptr, align 8
  store ptr %0, ptr %5, align 8
  store ptr %1, ptr %6, align 8
  store ptr %2, ptr %7, align 8
  %8 = load ptr, ptr %5, align 8
  %9 = getelementptr inbounds %struct.hb_bit_set_invertible_t, ptr %8, i32 0, i32 1
  %10 = load i8, ptr %9, align 8
  %11 = trunc i8 %10 to i1
  br i1 %11, label %17, label %12

12:                                               ; preds = %3
  %13 = getelementptr inbounds %struct.hb_bit_set_invertible_t, ptr %8, i32 0, i32 0
  %14 = load ptr, ptr %6, align 8
  %15 = load ptr, ptr %7, align 8
  %16 = call noundef zeroext i1 @_ZNK12hb_bit_set_t10next_rangeEPjS0_(ptr noundef nonnull align 8 dereferenceable(48) %13, ptr noundef %14, ptr noundef %15)
  store i1 %16, ptr %4, align 1
  br label %33

17:                                               ; preds = %3
  %18 = load ptr, ptr %7, align 8
  %19 = call noundef zeroext i1 @_ZNK23hb_bit_set_invertible_t4nextEPj(ptr noundef nonnull align 8 dereferenceable(49) %8, ptr noundef %18)
  br i1 %19, label %23, label %20

20:                                               ; preds = %17
  %21 = load ptr, ptr %6, align 8
  store i32 -1, ptr %21, align 4
  %22 = load ptr, ptr %7, align 8
  store i32 -1, ptr %22, align 4
  store i1 false, ptr %4, align 1
  br label %33

23:                                               ; preds = %17
  %24 = load ptr, ptr %7, align 8
  %25 = load i32, ptr %24, align 4
  %26 = load ptr, ptr %6, align 8
  store i32 %25, ptr %26, align 4
  %27 = getelementptr inbounds %struct.hb_bit_set_invertible_t, ptr %8, i32 0, i32 0
  %28 = load ptr, ptr %7, align 8
  %29 = call noundef zeroext i1 @_ZNK12hb_bit_set_t4nextEPj(ptr noundef nonnull align 8 dereferenceable(48) %27, ptr noundef %28)
  %30 = load ptr, ptr %7, align 8
  %31 = load i32, ptr %30, align 4
  %32 = add i32 %31, -1
  store i32 %32, ptr %30, align 4
  store i1 true, ptr %4, align 1
  br label %33

33:                                               ; preds = %23, %20, %12
  %34 = load i1, ptr %4, align 1
  ret i1 %34
}

; Function Attrs: mustprogress uwtable
define linkonce_odr hidden noundef zeroext i1 @_ZNK14hb_sparseset_tI23hb_bit_set_invertible_tE10next_rangeEPjS2_(ptr noundef nonnull align 8 dereferenceable(72) %0, ptr noundef %1, ptr noundef %2) #0 comdat align 2 {
  %4 = alloca ptr, align 8
  %5 = alloca ptr, align 8
  %6 = alloca ptr, align 8
  store ptr %0, ptr %4, align 8
  store ptr %1, ptr %5, align 8
  store ptr %2, ptr %6, align 8
  %7 = load ptr, ptr %4, align 8
  %8 = getelementptr inbounds %struct.hb_sparseset_t, ptr %7, i32 0, i32 1
  %9 = load ptr, ptr %5, align 8
  %10 = load ptr, ptr %6, align 8
  %11 = call noundef zeroext i1 @_ZNK23hb_bit_set_invertible_t10next_rangeEPjS0_(ptr noundef nonnull align 8 dereferenceable(49) %8, ptr noundef %9, ptr noundef %10)
  ret i1 %11
}

; Function Attrs: mustprogress uwtable
define hidden i32 @hb_set_next_range(ptr noundef %0, ptr noundef %1, ptr noundef %2) #0 {
  %4 = alloca ptr, align 8
  %5 = alloca ptr, align 8
  %6 = alloca ptr, align 8
  store ptr %0, ptr %4, align 8
  store ptr %1, ptr %5, align 8
  store ptr %2, ptr %6, align 8
  %7 = load ptr, ptr %4, align 8
  %8 = load ptr, ptr %5, align 8
  %9 = load ptr, ptr %6, align 8
  %10 = call noundef zeroext i1 @_ZNK14hb_sparseset_tI23hb_bit_set_invertible_tE10next_rangeEPjS2_(ptr noundef nonnull align 8 dereferenceable(72) %7, ptr noundef %8, ptr noundef %9)
  %11 = zext i1 %10 to i32
  ret i32 %11
}