; Function Attrs: mustprogress uwtable
define hidden range(i32 0, 2) i32 @hb_set_next_range(ptr noundef %0, ptr nocapture noundef writeonly %1, ptr noundef %2) local_unnamed_addr #3 {
  %4 = alloca i32, align 4
  %5 = getelementptr inbounds i8, ptr %0, i64 16
  %6 = getelementptr inbounds i8, ptr %0, i64 64
  %7 = load i8, ptr %6, align 8
  %8 = trunc i8 %7 to i1
  br i1 %8, label %23, label %9

9:                                                ; preds = %3
  call void @llvm.lifetime.start.p0(i64 4, ptr nonnull %4)
  %10 = load i32, ptr %2, align 4
  store i32 %10, ptr %4, align 4
  %11 = call noundef zeroext i1 @_ZNK12hb_bit_set_t4nextEPj(ptr noundef nonnull align 8 dereferenceable(48) %5, ptr noundef nonnull %4)
  br i1 %11, label %13, label %12

12:                                               ; preds = %9
  store i32 -1, ptr %1, align 4
  store i32 -1, ptr %2, align 4
  br label %_ZNK12hb_bit_set_t10next_rangeEPjS0_.exit.i.i

13:                                               ; preds = %9
  %14 = load i32, ptr %4, align 4
  store i32 %14, ptr %1, align 4
  br label %15

15:                                               ; preds = %17, %13
  %storemerge.i.i.i = phi i32 [ %14, %13 ], [ %18, %17 ]
  store i32 %storemerge.i.i.i, ptr %2, align 4
  %16 = call noundef zeroext i1 @_ZNK12hb_bit_set_t4nextEPj(ptr noundef nonnull align 8 dereferenceable(48) %5, ptr noundef nonnull %4)
  br i1 %16, label %17, label %_ZNK12hb_bit_set_t10next_rangeEPjS0_.exit.i.i

17:                                               ; preds = %15
  %18 = load i32, ptr %4, align 4
  %19 = load i32, ptr %2, align 4
  %20 = add i32 %19, 1
  %21 = icmp eq i32 %18, %20
  br i1 %21, label %15, label %_ZNK12hb_bit_set_t10next_rangeEPjS0_.exit.i.i, !llvm.loop !12

_ZNK12hb_bit_set_t10next_rangeEPjS0_.exit.i.i:    ; preds = %17, %15, %12
  call void @llvm.lifetime.end.p0(i64 4, ptr nonnull %4)
  %22 = zext i1 %11 to i32
  br label %_ZNK14hb_sparseset_tI23hb_bit_set_invertible_tE10next_rangeEPjS2_.exit

23:                                               ; preds = %3
  %24 = tail call noundef zeroext i1 @_ZNK23hb_bit_set_invertible_t4nextEPj(ptr noundef nonnull align 8 dereferenceable(49) %5, ptr noundef %2)
  br i1 %24, label %26, label %25

25:                                               ; preds = %23
  store i32 -1, ptr %1, align 4
  store i32 -1, ptr %2, align 4
  br label %_ZNK14hb_sparseset_tI23hb_bit_set_invertible_tE10next_rangeEPjS2_.exit

26:                                               ; preds = %23
  %27 = load i32, ptr %2, align 4
  store i32 %27, ptr %1, align 4
  %28 = tail call noundef zeroext i1 @_ZNK12hb_bit_set_t4nextEPj(ptr noundef nonnull align 8 dereferenceable(48) %5, ptr noundef nonnull %2)
  %29 = load i32, ptr %2, align 4
  %30 = add i32 %29, -1
  store i32 %30, ptr %2, align 4
  br label %_ZNK14hb_sparseset_tI23hb_bit_set_invertible_tE10next_rangeEPjS2_.exit

_ZNK14hb_sparseset_tI23hb_bit_set_invertible_tE10next_rangeEPjS2_.exit: ; preds = %_ZNK12hb_bit_set_t10next_rangeEPjS0_.exit.i.i, %25, %26
  %.0.i.i = phi i32 [ 1, %26 ], [ 0, %25 ], [ %22, %_ZNK12hb_bit_set_t10next_rangeEPjS0_.exit.i.i ]
  ret i32 %.0.i.i
}